target datalayout = "e-m:e-p270:32:32-p271:32:32-p272:64:64-i64:64-i128:128-f80:128-n8:16:32:64-S128"
target triple = "x86_64-pc-linux-gnu"

%"class.rocksdb::DataBlockHashIndex" = type { i16 }
%"class.rocksdb::Slice" = type { ptr, i64 }

; Function Attrs: mustprogress nounwind uwtable
define linkonce_odr noundef i64 @_ZNK7rocksdb5Slice4sizeEv(ptr noundef nonnull align 8 dereferenceable(16) %0) #3 comdat align 2 {
  %2 = alloca ptr, align 8
  store ptr %0, ptr %2, align 8, !tbaa !9
  %3 = load ptr, ptr %2, align 8
  %4 = getelementptr inbounds nuw %"class.rocksdb::Slice", ptr %3, i32 0, i32 1
  %5 = load i64, ptr %4, align 8, !tbaa !67
  ret i64 %5
}

; Function Attrs: mustprogress nounwind uwtable
define linkonce_odr noundef ptr @_ZNK7rocksdb5Slice4dataEv(ptr noundef nonnull align 8 dereferenceable(16) %0) #3 comdat align 2 {
  %2 = alloca ptr, align 8
  store ptr %0, ptr %2, align 8, !tbaa !9
  %3 = load ptr, ptr %2, align 8
  %4 = getelementptr inbounds nuw %"class.rocksdb::Slice", ptr %3, i32 0, i32 0
  %5 = load ptr, ptr %4, align 8, !tbaa !65
  ret ptr %5
}

; Function Attrs: inlinehint mustprogress uwtable
define linkonce_odr noundef i32 @_ZN7rocksdb12GetSliceHashERKNS_5SliceE(ptr noundef nonnull align 8 dereferenceable(16) %0) #2 comdat {
  %2 = alloca ptr, align 8
  store ptr %0, ptr %2, align 8, !tbaa !9
  %3 = load ptr, ptr %2, align 8, !tbaa !9
  %4 = call noundef ptr @_ZNK7rocksdb5Slice4dataEv(ptr noundef nonnull align 8 dereferenceable(16) %3)
  %5 = load ptr, ptr %2, align 8, !tbaa !9
  %6 = call noundef i64 @_ZNK7rocksdb5Slice4sizeEv(ptr noundef nonnull align 8 dereferenceable(16) %5)
  %7 = call noundef i32 @_ZN7rocksdb4HashEPKcmj(ptr noundef %4, i64 noundef %6, i32 noundef 397)
  ret i32 %7
}

; Function Attrs: mustprogress uwtable
define noundef zeroext i8 @_ZNK7rocksdb18DataBlockHashIndex6LookupEPKcjRKNS_5SliceE(ptr noundef nonnull align 2 dereferenceable(2) %0, ptr noundef %1, i32 noundef %2, ptr noundef nonnull align 8 dereferenceable(16) %3) #0 align 2 {
  %5 = alloca ptr, align 8
  %6 = alloca ptr, align 8
  %7 = alloca i32, align 4
  %8 = alloca ptr, align 8
  %9 = alloca i32, align 4
  %10 = alloca i16, align 2
  %11 = alloca ptr, align 8
  store ptr %0, ptr %5, align 8, !tbaa !59
  store ptr %1, ptr %6, align 8, !tbaa !31
  store i32 %2, ptr %7, align 4, !tbaa !22
  store ptr %3, ptr %8, align 8, !tbaa !9
  %12 = load ptr, ptr %5, align 8
  call void @llvm.lifetime.start.p0(i64 4, ptr %9) #13
  %13 = load ptr, ptr %8, align 8, !tbaa !9
  %14 = call noundef i32 @_ZN7rocksdb12GetSliceHashERKNS_5SliceE(ptr noundef nonnull align 8 dereferenceable(16) %13)
  store i32 %14, ptr %9, align 4, !tbaa !22
  call void @llvm.lifetime.start.p0(i64 2, ptr %10) #13
  %15 = load i32, ptr %9, align 4, !tbaa !22
  %16 = getelementptr inbounds nuw %"class.rocksdb::DataBlockHashIndex", ptr %12, i32 0, i32 0
  %17 = load i16, ptr %16, align 2, !tbaa !63
  %18 = zext i16 %17 to i32
  %19 = urem i32 %15, %18
  %20 = trunc i32 %19 to i16
  store i16 %20, ptr %10, align 2, !tbaa !37
  call void @llvm.lifetime.start.p0(i64 8, ptr %11) #13
  %21 = load ptr, ptr %6, align 8, !tbaa !31
  %22 = load i32, ptr %7, align 4, !tbaa !22
  %23 = zext i32 %22 to i64
  %24 = getelementptr inbounds nuw i8, ptr %21, i64 %23
  store ptr %24, ptr %11, align 8, !tbaa !31
  %25 = load ptr, ptr %11, align 8, !tbaa !31
  %26 = load i16, ptr %10, align 2, !tbaa !37
  %27 = zext i16 %26 to i64
  %28 = mul i64 %27, 1
  %29 = getelementptr inbounds nuw i8, ptr %25, i64 %28
  %30 = load i8, ptr %29, align 1, !tbaa !24
  call void @llvm.lifetime.end.p0(i64 8, ptr %11) #13
  call void @llvm.lifetime.end.p0(i64 2, ptr %10) #13
  call void @llvm.lifetime.end.p0(i64 4, ptr %9) #13
  ret i8 %30
}