; Function Attrs: mustprogress uwtable
define noundef zeroext i8 @_ZNK7rocksdb18DataBlockHashIndex6LookupEPKcjRKNS_5SliceE(ptr noundef nonnull readonly align 2 captures(none) dereferenceable(2) %0, ptr noundef readonly captures(none) %1, i32 noundef %2, ptr noundef nonnull readonly align 8 captures(none) dereferenceable(16) %3) local_unnamed_addr #0 align 2 {
  %5 = load ptr, ptr %3, align 8, !tbaa !16
  %6 = getelementptr inbounds nuw i8, ptr %3, i64 8
  %7 = load i64, ptr %6, align 8, !tbaa !20
  %8 = tail call noundef i32 @_ZN7rocksdb4HashEPKcmj(ptr noundef %5, i64 noundef %7, i32 noundef 397)
  %9 = load i16, ptr %0, align 2, !tbaa !44
  %10 = zext i16 %9 to i32
  %11 = urem i32 %8, %10
  %12 = zext nneg i32 %11 to i64
  %13 = zext i32 %2 to i64
  %14 = getelementptr inbounds nuw i8, ptr %1, i64 %13
  %15 = getelementptr inbounds nuw i8, ptr %14, i64 %12
  %16 = load i8, ptr %15, align 1, !tbaa !38
  ret i8 %16
}